; ModuleID = '31/2057.c'
source_filename = "31/2057.c"
target datalayout = "e-m:e-p270:32:32-p271:32:32-p272:64:64-i64:64-f80:128-n8:16:32:64-S128"
target triple = "x86_64-pc-linux-gnu"

%struct.student = type { [9 x i8], [20 x i8], i8, i32, [6 x i8], [11 x i8], %struct.student* }

@n = dso_local global i32 0, align 4
@.str = private unnamed_addr constant [3 x i8] c"%s\00", align 1
@.str.1 = private unnamed_addr constant [15 x i8] c"%s %c %d %s %s\00", align 1
@.str.2 = private unnamed_addr constant [4 x i8] c"end\00", align 1
@.str.3 = private unnamed_addr constant [19 x i8] c"%s %s %c %d %s %s\0A\00", align 1

; Function Attrs: noinline nounwind uwtable
define dso_local void @main() #0 {
  %1 = alloca %struct.student*, align 8
  %2 = alloca %struct.student*, align 8
  %3 = alloca %struct.student*, align 8
  %4 = alloca %struct.student*, align 8
  %5 = alloca %struct.student*, align 8
  store %struct.student* null, %struct.student** %5, align 8
  %6 = call noalias i8* @malloc(i64 100) #4
  %7 = bitcast i8* %6 to %struct.student*
  store %struct.student* %7, %struct.student** %3, align 8
  store %struct.student* %7, %struct.student** %2, align 8
  %8 = load %struct.student*, %struct.student** %2, align 8
  %9 = getelementptr inbounds %struct.student, %struct.student* %8, i32 0, i32 0
  %10 = getelementptr inbounds [9 x i8], [9 x i8]* %9, i64 0, i64 0
  %11 = call i32 (i8*, ...) @__isoc99_scanf(i8* getelementptr inbounds ([3 x i8], [3 x i8]* @.str, i64 0, i64 0), i8* %10)
  %12 = load %struct.student*, %struct.student** %2, align 8
  %13 = getelementptr inbounds %struct.student, %struct.student* %12, i32 0, i32 1
  %14 = getelementptr inbounds [20 x i8], [20 x i8]* %13, i64 0, i64 0
  %15 = load %struct.student*, %struct.student** %2, align 8
  %16 = getelementptr inbounds %struct.student, %struct.student* %15, i32 0, i32 2
  %17 = load %struct.student*, %struct.student** %2, align 8
  %18 = getelementptr inbounds %struct.student, %struct.student* %17, i32 0, i32 3
  %19 = load %struct.student*, %struct.student** %2, align 8
  %20 = getelementptr inbounds %struct.student, %struct.student* %19, i32 0, i32 4
  %21 = getelementptr inbounds [6 x i8], [6 x i8]* %20, i64 0, i64 0
  %22 = load %struct.student*, %struct.student** %2, align 8
  %23 = getelementptr inbounds %struct.student, %struct.student* %22, i32 0, i32 5
  %24 = getelementptr inbounds [11 x i8], [11 x i8]* %23, i64 0, i64 0
  %25 = call i32 (i8*, ...) @__isoc99_scanf(i8* getelementptr inbounds ([15 x i8], [15 x i8]* @.str.1, i64 0, i64 0), i8* %14, i8* %16, i32* %18, i8* %21, i8* %24)
  store %struct.student* null, %struct.student** %1, align 8
  br label %26

26:                                               ; preds = %57, %0
  %27 = load %struct.student*, %struct.student** %2, align 8
  %28 = getelementptr inbounds %struct.student, %struct.student* %27, i32 0, i32 0
  %29 = getelementptr inbounds [9 x i8], [9 x i8]* %28, i64 0, i64 0
  %30 = call i32 @strcmp(i8* %29, i8* getelementptr inbounds ([4 x i8], [4 x i8]* @.str.2, i64 0, i64 0)) #5
  %31 = icmp ne i32 %30, 0
  br i1 %31, label %32, label %71

32:                                               ; preds = %26
  %33 = load i32, i32* @n, align 4
  %34 = add nsw i32 %33, 1
  store i32 %34, i32* @n, align 4
  %35 = load i32, i32* @n, align 4
  %36 = icmp eq i32 %35, 1
  br i1 %36, label %37, label %39

37:                                               ; preds = %32
  %38 = load %struct.student*, %struct.student** %2, align 8
  store %struct.student* %38, %struct.student** %1, align 8
  br label %43

39:                                               ; preds = %32
  %40 = load %struct.student*, %struct.student** %2, align 8
  %41 = load %struct.student*, %struct.student** %3, align 8
  %42 = getelementptr inbounds %struct.student, %struct.student* %41, i32 0, i32 6
  store %struct.student* %40, %struct.student** %42, align 8
  br label %43

43:                                               ; preds = %39, %37
  %44 = load %struct.student*, %struct.student** %2, align 8
  store %struct.student* %44, %struct.student** %3, align 8
  %45 = call noalias i8* @malloc(i64 100) #4
  %46 = bitcast i8* %45 to %struct.student*
  store %struct.student* %46, %struct.student** %2, align 8
  %47 = load %struct.student*, %struct.student** %2, align 8
  %48 = getelementptr inbounds %struct.student, %struct.student* %47, i32 0, i32 0
  %49 = getelementptr inbounds [9 x i8], [9 x i8]* %48, i64 0, i64 0
  %50 = call i32 (i8*, ...) @__isoc99_scanf(i8* getelementptr inbounds ([3 x i8], [3 x i8]* @.str, i64 0, i64 0), i8* %49)
  %51 = load %struct.student*, %struct.student** %2, align 8
  %52 = getelementptr inbounds %struct.student, %struct.student* %51, i32 0, i32 0
  %53 = getelementptr inbounds [9 x i8], [9 x i8]* %52, i64 0, i64 0
  %54 = call i32 @strcmp(i8* %53, i8* getelementptr inbounds ([4 x i8], [4 x i8]* @.str.2, i64 0, i64 0)) #5
  %55 = icmp eq i32 %54, 0
  br i1 %55, label %56, label %57

56:                                               ; preds = %43
  br label %71

57:                                               ; preds = %43
  %58 = load %struct.student*, %struct.student** %2, align 8
  %59 = getelementptr inbounds %struct.student, %struct.student* %58, i32 0, i32 1
  %60 = getelementptr inbounds [20 x i8], [20 x i8]* %59, i64 0, i64 0
  %61 = load %struct.student*, %struct.student** %2, align 8
  %62 = getelementptr inbounds %struct.student, %struct.student* %61, i32 0, i32 2
  %63 = load %struct.student*, %struct.student** %2, align 8
  %64 = getelementptr inbounds %struct.student, %struct.student* %63, i32 0, i32 3
  %65 = load %struct.student*, %struct.student** %2, align 8
  %66 = getelementptr inbounds %struct.student, %struct.student* %65, i32 0, i32 4
  %67 = load %struct.student*, %struct.student** %2, align 8
  %68 = getelementptr inbounds %struct.student, %struct.student* %67, i32 0, i32 5
  %69 = getelementptr inbounds [11 x i8], [11 x i8]* %68, i64 0, i64 0
  %70 = call i32 (i8*, ...) @__isoc99_scanf(i8* getelementptr inbounds ([15 x i8], [15 x i8]* @.str.1, i64 0, i64 0), i8* %60, i8* %62, i32* %64, [6 x i8]* %66, i8* %69)
  br label %26

71:                                               ; preds = %56, %26
  %72 = load %struct.student*, %struct.student** %3, align 8
  %73 = getelementptr inbounds %struct.student, %struct.student* %72, i32 0, i32 6
  store %struct.student* null, %struct.student** %73, align 8
  br label %74

74:                                               ; preds = %100, %71
  store %struct.student* null, %struct.student** %3, align 8
  %75 = load %struct.student*, %struct.student** %1, align 8
  store %struct.student* %75, %struct.student** %2, align 8
  br label %76

76:                                               ; preds = %81, %74
  %77 = load %struct.student*, %struct.student** %2, align 8
  %78 = getelementptr inbounds %struct.student, %struct.student* %77, i32 0, i32 6
  %79 = load %struct.student*, %struct.student** %78, align 8
  %80 = icmp ne %struct.student* %79, null
  br i1 %80, label %81, label %86

81:                                               ; preds = %76
  %82 = load %struct.student*, %struct.student** %2, align 8
  store %struct.student* %82, %struct.student** %3, align 8
  %83 = load %struct.student*, %struct.student** %2, align 8
  %84 = getelementptr inbounds %struct.student, %struct.student* %83, i32 0, i32 6
  %85 = load %struct.student*, %struct.student** %84, align 8
  store %struct.student* %85, %struct.student** %2, align 8
  br label %76

86:                                               ; preds = %76
  %87 = load %struct.student*, %struct.student** %5, align 8
  %88 = icmp eq %struct.student* %87, null
  br i1 %88, label %89, label %94

89:                                               ; preds = %86
  %90 = load %struct.student*, %struct.student** %2, align 8
  store %struct.student* %90, %struct.student** %5, align 8
  %91 = load %struct.student*, %struct.student** %3, align 8
  %92 = load %struct.student*, %struct.student** %5, align 8
  %93 = getelementptr inbounds %struct.student, %struct.student* %92, i32 0, i32 6
  store %struct.student* %91, %struct.student** %93, align 8
  store %struct.student* %91, %struct.student** %4, align 8
  br label %94

94:                                               ; preds = %89, %86
  %95 = load %struct.student*, %struct.student** %3, align 8
  %96 = load %struct.student*, %struct.student** %4, align 8
  %97 = getelementptr inbounds %struct.student, %struct.student* %96, i32 0, i32 6
  store %struct.student* %95, %struct.student** %97, align 8
  store %struct.student* %95, %struct.student** %4, align 8
  %98 = load %struct.student*, %struct.student** %3, align 8
  %99 = getelementptr inbounds %struct.student, %struct.student* %98, i32 0, i32 6
  store %struct.student* null, %struct.student** %99, align 8
  br label %100

100:                                              ; preds = %94
  %101 = load %struct.student*, %struct.student** %1, align 8
  %102 = getelementptr inbounds %struct.student, %struct.student* %101, i32 0, i32 6
  %103 = load %struct.student*, %struct.student** %102, align 8
  %104 = icmp ne %struct.student* %103, null
  br i1 %104, label %74, label %105

105:                                              ; preds = %100
  br label %106

106:                                              ; preds = %130, %105
  %107 = load %struct.student*, %struct.student** %5, align 8
  %108 = getelementptr inbounds %struct.student, %struct.student* %107, i32 0, i32 0
  %109 = getelementptr inbounds [9 x i8], [9 x i8]* %108, i64 0, i64 0
  %110 = load %struct.student*, %struct.student** %5, align 8
  %111 = getelementptr inbounds %struct.student, %struct.student* %110, i32 0, i32 1
  %112 = getelementptr inbounds [20 x i8], [20 x i8]* %111, i64 0, i64 0
  %113 = load %struct.student*, %struct.student** %5, align 8
  %114 = getelementptr inbounds %struct.student, %struct.student* %113, i32 0, i32 2
  %115 = load i8, i8* %114, align 1
  %116 = sext i8 %115 to i32
  %117 = load %struct.student*, %struct.student** %5, align 8
  %118 = getelementptr inbounds %struct.student, %struct.student* %117, i32 0, i32 3
  %119 = load i32, i32* %118, align 8
  %120 = load %struct.student*, %struct.student** %5, align 8
  %121 = getelementptr inbounds %struct.student, %struct.student* %120, i32 0, i32 4
  %122 = getelementptr inbounds [6 x i8], [6 x i8]* %121, i64 0, i64 0
  %123 = load %struct.student*, %struct.student** %5, align 8
  %124 = getelementptr inbounds %struct.student, %struct.student* %123, i32 0, i32 5
  %125 = getelementptr inbounds [11 x i8], [11 x i8]* %124, i64 0, i64 0
  %126 = call i32 (i8*, ...) @printf(i8* getelementptr inbounds ([19 x i8], [19 x i8]* @.str.3, i64 0, i64 0), i8* %109, i8* %112, i32 %116, i32 %119, i8* %122, i8* %125)
  %127 = load %struct.student*, %struct.student** %5, align 8
  %128 = getelementptr inbounds %struct.student, %struct.student* %127, i32 0, i32 6
  %129 = load %struct.student*, %struct.student** %128, align 8
  store %struct.student* %129, %struct.student** %5, align 8
  br label %130

130:                                              ; preds = %106
  %131 = load %struct.student*, %struct.student** %5, align 8
  %132 = icmp ne %struct.student* %131, null
  br i1 %132, label %106, label %133

133:                                              ; preds = %130
  ret void
}

; Function Attrs: nounwind
declare dso_local noalias i8* @malloc(i64) #1

declare dso_local i32 @__isoc99_scanf(i8*, ...) #2

; Function Attrs: nounwind readonly
declare dso_local i32 @strcmp(i8*, i8*) #3

declare dso_local i32 @printf(i8*, ...) #2


!llvm.module.flags = !{!0}
!llvm.ident = !{!1}

!0 = !{i32 1, !"wchar_size", i32 4}
!1 = !{!"clang version 10.0.0-4ubuntu1 "}
